target datalayout = "e-m:e-p270:32:32-p271:32:32-p272:64:64-i64:64-i128:128-f80:128-n8:16:32:64-S128"
target triple = "x86_64-pc-linux-gnu"

@.str.38 = private unnamed_addr constant [16 x i8] c"y|p:fatal_error\00", align 1
@__func__._testcapi_fatal_error_impl = private unnamed_addr constant [27 x i8] c"_testcapi_fatal_error_impl\00", align 1

; Function Attrs: nounwind uwtable
define internal ptr @_testcapi_fatal_error_impl(ptr noundef %0, ptr noundef %1, i32 noundef %2) #0 {
  %4 = alloca ptr, align 8
  %5 = alloca ptr, align 8
  %6 = alloca i32, align 4
  %7 = alloca ptr, align 8
  store ptr %0, ptr %4, align 8, !tbaa !3
  store ptr %1, ptr %5, align 8, !tbaa !22
  store i32 %2, ptr %6, align 4, !tbaa !21
  %8 = load i32, ptr %6, align 4, !tbaa !21
  %9 = icmp ne i32 %8, 0
  br i1 %9, label %10, label %13

10:                                               ; preds = %3
  call void @llvm.lifetime.start.p0(i64 8, ptr %7) #10
  %11 = call ptr @PyEval_SaveThread()
  store ptr %11, ptr %7, align 8, !tbaa !29
  %12 = load ptr, ptr %5, align 8, !tbaa !22
  call void @_Py_FatalErrorFunc(ptr noundef @__func__._testcapi_fatal_error_impl, ptr noundef %12) #13
  unreachable

13:                                               ; preds = %3
  %14 = load ptr, ptr %5, align 8, !tbaa !22
  call void @_Py_FatalErrorFunc(ptr noundef @__func__._testcapi_fatal_error_impl, ptr noundef %14) #13
  unreachable
}

; Function Attrs: nounwind uwtable
define internal ptr @_testcapi_fatal_error(ptr noundef %0, ptr noundef %1, i64 noundef %2) #0 {
  %4 = alloca ptr, align 8
  %5 = alloca ptr, align 8
  %6 = alloca i64, align 8
  %7 = alloca ptr, align 8
  %8 = alloca ptr, align 8
  %9 = alloca i32, align 4
  store ptr %0, ptr %4, align 8, !tbaa !3
  store ptr %1, ptr %5, align 8, !tbaa !23
  store i64 %2, ptr %6, align 8, !tbaa !25
  call void @llvm.lifetime.start.p0(i64 8, ptr %7) #10
  store ptr null, ptr %7, align 8, !tbaa !3
  call void @llvm.lifetime.start.p0(i64 8, ptr %8) #10
  call void @llvm.lifetime.start.p0(i64 4, ptr %9) #10
  store i32 0, ptr %9, align 4, !tbaa !21
  %10 = load ptr, ptr %5, align 8, !tbaa !23
  %11 = load i64, ptr %6, align 8, !tbaa !25
  %12 = call i32 (ptr, i64, ptr, ...) @_PyArg_ParseStack(ptr noundef %10, i64 noundef %11, ptr noundef @.str.38, ptr noundef %8, ptr noundef %9)
  %13 = icmp ne i32 %12, 0
  br i1 %13, label %15, label %14

14:                                               ; preds = %3
  br label %20

15:                                               ; preds = %3
  %16 = load ptr, ptr %4, align 8, !tbaa !3
  %17 = load ptr, ptr %8, align 8, !tbaa !22
  %18 = load i32, ptr %9, align 4, !tbaa !21
  %19 = call ptr @_testcapi_fatal_error_impl(ptr noundef %16, ptr noundef %17, i32 noundef %18)
  store ptr %19, ptr %7, align 8, !tbaa !3
  br label %20

20:                                               ; preds = %15, %14
  %21 = load ptr, ptr %7, align 8, !tbaa !3
  call void @llvm.lifetime.end.p0(i64 4, ptr %9) #10
  call void @llvm.lifetime.end.p0(i64 8, ptr %8) #10
  call void @llvm.lifetime.end.p0(i64 8, ptr %7) #10
  ret ptr %21
}