; Function Attrs: nounwind uwtable
define internal noalias noundef ptr @_testcapi_fatal_error(ptr readnone captures(none) %0, ptr noundef %1, i64 noundef %2) #0 {
  %4 = alloca ptr, align 8
  %5 = alloca i32, align 4
  call void @llvm.lifetime.start.p0(i64 8, ptr nonnull %4) #8
  call void @llvm.lifetime.start.p0(i64 4, ptr nonnull %5) #8
  store i32 0, ptr %5, align 4, !tbaa !24
  %6 = call i32 (ptr, i64, ptr, ...) @_PyArg_ParseStack(ptr noundef %1, i64 noundef %2, ptr noundef nonnull @.str.38, ptr noundef nonnull %4, ptr noundef nonnull %5) #8
  %.not = icmp eq i32 %6, 0
  br i1 %.not, label %13, label %7

7:                                                ; preds = %3
  %8 = load ptr, ptr %4, align 8, !tbaa !21
  %9 = load i32, ptr %5, align 4, !tbaa !24
  %.not.i = icmp eq i32 %9, 0
  br i1 %.not.i, label %12, label %10

10:                                               ; preds = %7
  %11 = call ptr @PyEval_SaveThread() #8
  call void @_Py_FatalErrorFunc(ptr noundef nonnull @__func__._testcapi_fatal_error_impl, ptr noundef %8) #9
  unreachable

12:                                               ; preds = %7
  call void @_Py_FatalErrorFunc(ptr noundef nonnull @__func__._testcapi_fatal_error_impl, ptr noundef %8) #9
  unreachable

13:                                               ; preds = %3
  call void @llvm.lifetime.end.p0(i64 4, ptr nonnull %5) #8
  call void @llvm.lifetime.end.p0(i64 8, ptr nonnull %4) #8
  ret ptr null
}